target datalayout = "e-m:e-p270:32:32-p271:32:32-p272:64:64-i64:64-i128:128-f80:128-n8:16:32:64-S128"
target triple = "x86_64-pc-linux-gnu"

%struct.Type_ = type { i32, ptr, ptr, ptr, %union.anon, ptr, ptr, %union.anon.1 }
%union.anon = type { ptr }
%union.anon.1 = type { %struct.TypeFunction }
%struct.TypeFunction = type { ptr, ptr, ptr }
%union.SourceSpan = type { i64 }
%struct.Decl_ = type { ptr, ptr, %union.SourceSpan, i64, %union.anon.3, i32, %union.anon.4, i64, ptr, ptr, ptr, %union.anon.5 }
%union.anon.3 = type { ptr }
%union.anon.4 = type { i16 }
%union.anon.5 = type { %struct.FuncDecl }
%struct.FuncDecl = type { i32, [4 x i8], %struct.Signature_, i32, i32, %union.anon.12 }
%struct.Signature_ = type <{ %struct.CalleeAttributes, i16, i8, i32, i32, [4 x i8], ptr }>
%struct.CalleeAttributes = type { i8 }
%union.anon.12 = type { %struct.anon.13 }
%struct.anon.13 = type { i16, %union.anon.14 }
%union.anon.14 = type { ptr }
%struct.TypeArray = type { ptr, i32 }
%struct.anon.6 = type { ptr, ptr, %union.anon.7 }
%union.anon.7 = type { %struct.BitStructDecl }
%struct.BitStructDecl = type { ptr, ptr, i8 }
%struct.TypeInfo_ = type { i16, ptr, %union.SourceSpan, %union.anon.54 }
%union.anon.54 = type { %struct.anon.55 }
%struct.anon.55 = type { ptr, ptr }

@.str = private unnamed_addr constant [36 x i8] c"FATAL ERROR %s -> in %s @ in %s:%d \00", align 1
@.str.2 = private unnamed_addr constant [106 x i8] c"generated/home/dtcxzyw/WorkSpace/Projects/compilers/llvm-opt-benchmark/bench/c3c/c3c/src/compiler/types.c\00", align 1
@.str.17 = private unnamed_addr constant [22 x i8] c"Should be unreachable\00", align 1
@__func__.type_is_comparable = private unnamed_addr constant [19 x i8] c"type_is_comparable\00", align 1

; Function Attrs: nounwind uwtable
define dso_local zeroext i1 @type_is_comparable(ptr noundef %0) #0 {
  %2 = alloca i1, align 1
  %3 = alloca ptr, align 8
  store ptr %0, ptr %3, align 8
  br label %4

4:                                                ; preds = %31, %26, %22, %12, %1
  %5 = load ptr, ptr %3, align 8
  %6 = getelementptr inbounds %struct.Type_, ptr %5, i32 0, i32 0
  %7 = load i32, ptr %6, align 8
  switch i32 %7, label %41 [
    i32 38, label %8
    i32 36, label %8
    i32 0, label %8
    i32 1, label %11
    i32 27, label %11
    i32 26, label %11
    i32 35, label %11
    i32 40, label %11
    i32 43, label %11
    i32 18, label %11
    i32 28, label %11
    i32 29, label %12
    i32 31, label %22
    i32 34, label %26
    i32 33, label %26
    i32 32, label %31
    i32 2, label %40
    i32 3, label %40
    i32 4, label %40
    i32 5, label %40
    i32 6, label %40
    i32 7, label %40
    i32 8, label %40
    i32 9, label %40
    i32 10, label %40
    i32 11, label %40
    i32 12, label %40
    i32 14, label %40
    i32 13, label %40
    i32 15, label %40
    i32 16, label %40
    i32 17, label %40
    i32 19, label %40
    i32 20, label %40
    i32 21, label %40
    i32 22, label %40
    i32 23, label %40
    i32 24, label %40
    i32 25, label %40
    i32 30, label %40
    i32 39, label %40
    i32 42, label %40
    i32 37, label %40
    i32 41, label %40
  ]

8:                                                ; preds = %4, %4, %4
  br label %9

9:                                                ; preds = %8
  call void (ptr, ...) @error_exit(ptr noundef @.str, ptr noundef @.str.17, ptr noundef @__func__.type_is_comparable, ptr noundef @.str.2, i32 noundef 493) #7
  unreachable

10:                                               ; No predecessors!
  br label %11

11:                                               ; preds = %10, %4, %4, %4, %4, %4, %4, %4, %4
  store i1 false, ptr %2, align 1
  br label %43

12:                                               ; preds = %4
  %13 = load ptr, ptr %3, align 8
  %14 = getelementptr inbounds %struct.Type_, ptr %13, i32 0, i32 7
  %15 = load ptr, ptr %14, align 8
  %16 = getelementptr inbounds %struct.Decl_, ptr %15, i32 0, i32 11
  %17 = getelementptr inbounds %struct.anon.6, ptr %16, i32 0, i32 2
  %18 = getelementptr inbounds %struct.BitStructDecl, ptr %17, i32 0, i32 0
  %19 = load ptr, ptr %18, align 8
  %20 = getelementptr inbounds %struct.TypeInfo_, ptr %19, i32 0, i32 1
  %21 = load ptr, ptr %20, align 8
  store ptr %21, ptr %3, align 8
  br label %4

22:                                               ; preds = %4
  %23 = load ptr, ptr %3, align 8
  %24 = getelementptr inbounds %struct.Type_, ptr %23, i32 0, i32 1
  %25 = load ptr, ptr %24, align 8
  store ptr %25, ptr %3, align 8
  br label %4

26:                                               ; preds = %4, %4
  %27 = load ptr, ptr %3, align 8
  %28 = getelementptr inbounds %struct.Type_, ptr %27, i32 0, i32 7
  %29 = getelementptr inbounds %struct.TypeArray, ptr %28, i32 0, i32 0
  %30 = load ptr, ptr %29, align 8
  store ptr %30, ptr %3, align 8
  br label %4

31:                                               ; preds = %4
  %32 = load ptr, ptr %3, align 8
  %33 = getelementptr inbounds %struct.Type_, ptr %32, i32 0, i32 7
  %34 = load ptr, ptr %33, align 8
  %35 = getelementptr inbounds %struct.Decl_, ptr %34, i32 0, i32 11
  %36 = getelementptr inbounds %struct.anon.6, ptr %35, i32 0, i32 2
  %37 = load ptr, ptr %36, align 8
  %38 = getelementptr inbounds %struct.TypeInfo_, ptr %37, i32 0, i32 1
  %39 = load ptr, ptr %38, align 8
  store ptr %39, ptr %3, align 8
  br label %4

40:                                               ; preds = %4, %4, %4, %4, %4, %4, %4, %4, %4, %4, %4, %4, %4, %4, %4, %4, %4, %4, %4, %4, %4, %4, %4, %4, %4, %4, %4, %4
  store i1 true, ptr %2, align 1
  br label %43

41:                                               ; preds = %4
  br label %42

42:                                               ; preds = %41
  call void (ptr, ...) @error_exit(ptr noundef @.str, ptr noundef @.str.17, ptr noundef @__func__.type_is_comparable, ptr noundef @.str.2, i32 noundef 534) #7
  unreachable

43:                                               ; preds = %40, %11
  %44 = load i1, ptr %2, align 1
  ret i1 %44
}