; Function Attrs: nounwind uwtable
define dso_local noundef zeroext i1 @type_is_comparable(ptr nocapture noundef readonly %0) local_unnamed_addr #0 {
  br label %2

2:                                                ; preds = %.backedge, %1
  %.0 = phi ptr [ %0, %1 ], [ %.0.be, %.backedge ]
  %3 = load i32, ptr %.0, align 8
  switch i32 %3, label %21 [
    i32 38, label %4
    i32 36, label %4
    i32 0, label %4
    i32 1, label %.loopexit.loopexit
    i32 27, label %.loopexit.loopexit
    i32 26, label %.loopexit.loopexit
    i32 35, label %.loopexit.loopexit
    i32 40, label %.loopexit.loopexit
    i32 43, label %.loopexit.loopexit
    i32 18, label %.loopexit.loopexit
    i32 28, label %.loopexit.loopexit
    i32 29, label %5
    i32 31, label %11
    i32 34, label %13
    i32 33, label %13
    i32 32, label %15
    i32 2, label %.loopexit
    i32 3, label %.loopexit
    i32 4, label %.loopexit
    i32 5, label %.loopexit
    i32 6, label %.loopexit
    i32 7, label %.loopexit
    i32 8, label %.loopexit
    i32 9, label %.loopexit
    i32 10, label %.loopexit
    i32 11, label %.loopexit
    i32 12, label %.loopexit
    i32 14, label %.loopexit
    i32 13, label %.loopexit
    i32 15, label %.loopexit
    i32 16, label %.loopexit
    i32 17, label %.loopexit
    i32 19, label %.loopexit
    i32 20, label %.loopexit
    i32 21, label %.loopexit
    i32 22, label %.loopexit
    i32 23, label %.loopexit
    i32 24, label %.loopexit
    i32 25, label %.loopexit
    i32 30, label %.loopexit
    i32 39, label %.loopexit
    i32 42, label %.loopexit
    i32 37, label %.loopexit
    i32 41, label %.loopexit
  ]

4:                                                ; preds = %2, %2, %2
  tail call void (ptr, ...) @error_exit(ptr noundef nonnull @.str, ptr noundef nonnull @.str.17, ptr noundef nonnull @__func__.type_is_comparable, ptr noundef nonnull @.str.2, i32 noundef 493) #13
  unreachable

5:                                                ; preds = %2
  %6 = getelementptr inbounds i8, ptr %.0, i64 56
  %7 = load ptr, ptr %6, align 8
  %8 = getelementptr inbounds i8, ptr %7, i64 96
  %9 = load ptr, ptr %8, align 8
  %10 = getelementptr inbounds i8, ptr %9, i64 8
  br label %.backedge

.backedge:                                        ; preds = %5, %11, %13, %15
  %.0.be.in = phi ptr [ %20, %15 ], [ %14, %13 ], [ %12, %11 ], [ %10, %5 ]
  %.0.be = load ptr, ptr %.0.be.in, align 8
  br label %2

11:                                               ; preds = %2
  %12 = getelementptr inbounds i8, ptr %.0, i64 8
  br label %.backedge

13:                                               ; preds = %2, %2
  %14 = getelementptr inbounds i8, ptr %.0, i64 56
  br label %.backedge

15:                                               ; preds = %2
  %16 = getelementptr inbounds i8, ptr %.0, i64 56
  %17 = load ptr, ptr %16, align 8
  %18 = getelementptr inbounds i8, ptr %17, i64 96
  %19 = load ptr, ptr %18, align 8
  %20 = getelementptr inbounds i8, ptr %19, i64 8
  br label %.backedge

21:                                               ; preds = %2
  tail call void (ptr, ...) @error_exit(ptr noundef nonnull @.str, ptr noundef nonnull @.str.17, ptr noundef nonnull @__func__.type_is_comparable, ptr noundef nonnull @.str.2, i32 noundef 534) #13
  unreachable

.loopexit.loopexit:                               ; preds = %2, %2, %2, %2, %2, %2, %2, %2
  br label %.loopexit

.loopexit:                                        ; preds = %2, %2, %2, %2, %2, %2, %2, %2, %2, %2, %2, %2, %2, %2, %2, %2, %2, %2, %2, %2, %2, %2, %2, %2, %2, %2, %2, %2, %.loopexit.loopexit
  %.06 = phi i1 [ false, %.loopexit.loopexit ], [ true, %2 ], [ true, %2 ], [ true, %2 ], [ true, %2 ], [ true, %2 ], [ true, %2 ], [ true, %2 ], [ true, %2 ], [ true, %2 ], [ true, %2 ], [ true, %2 ], [ true, %2 ], [ true, %2 ], [ true, %2 ], [ true, %2 ], [ true, %2 ], [ true, %2 ], [ true, %2 ], [ true, %2 ], [ true, %2 ], [ true, %2 ], [ true, %2 ], [ true, %2 ], [ true, %2 ], [ true, %2 ], [ true, %2 ], [ true, %2 ], [ true, %2 ]
  ret i1 %.06
}